target datalayout = "e-m:e-p270:32:32-p271:32:32-p272:64:64-i64:64-i128:128-f80:128-n8:16:32:64-S128"
target triple = "x86_64-pc-linux-gnu"

; Function Attrs: mustprogress uwtable
define dso_local void @_Z10drawImage5RN7Imf_3_47Array2DINS_4RgbaEEEiiiiiiii(ptr noundef nonnull align 8 dereferenceable(24) %0, i32 noundef %1, i32 noundef %2, i32 noundef %3, i32 noundef %4, i32 noundef %5, i32 noundef %6, i32 noundef %7, i32 noundef %8) #4 {
  %10 = alloca ptr, align 8
  %11 = alloca i32, align 4
  %12 = alloca i32, align 4
  %13 = alloca i32, align 4
  %14 = alloca i32, align 4
  %15 = alloca i32, align 4
  %16 = alloca i32, align 4
  %17 = alloca i32, align 4
  %18 = alloca i32, align 4
  store ptr %0, ptr %10, align 8, !tbaa !4
  store i32 %1, ptr %11, align 4, !tbaa !9
  store i32 %2, ptr %12, align 4, !tbaa !9
  store i32 %3, ptr %13, align 4, !tbaa !9
  store i32 %4, ptr %14, align 4, !tbaa !9
  store i32 %5, ptr %15, align 4, !tbaa !9
  store i32 %6, ptr %16, align 4, !tbaa !9
  store i32 %7, ptr %17, align 4, !tbaa !9
  store i32 %8, ptr %18, align 4, !tbaa !9
  %19 = load ptr, ptr %10, align 8, !tbaa !4
  %20 = load i32, ptr %11, align 4, !tbaa !9
  %21 = load i32, ptr %12, align 4, !tbaa !9
  %22 = load i32, ptr %13, align 4, !tbaa !9
  %23 = load i32, ptr %14, align 4, !tbaa !9
  %24 = load i32, ptr %15, align 4, !tbaa !9
  %25 = load i32, ptr %16, align 4, !tbaa !9
  %26 = load i32, ptr %17, align 4, !tbaa !9
  %27 = shl i32 1, %26
  %28 = load i32, ptr %18, align 4, !tbaa !9
  %29 = shl i32 1, %28
  %30 = load i32, ptr %18, align 4, !tbaa !9
  %31 = shl i32 1, %30
  %32 = sitofp i32 %31 to double
  %33 = load i32, ptr %17, align 4, !tbaa !9
  %34 = shl i32 1, %33
  %35 = sitofp i32 %34 to double
  %36 = fdiv double %32, %35
  call void @_ZN12_GLOBAL__N_14mndlIN7Imf_3_44RgbaEEEvRNS1_7Array2DIT_EEiiiiiiiidddddd(ptr noundef nonnull align 8 dereferenceable(24) %19, i32 noundef %20, i32 noundef %21, i32 noundef %22, i32 noundef %23, i32 noundef %24, i32 noundef %25, i32 noundef %27, i32 noundef %29, double noundef 2.839000e-01, double noundef 2.852000e-01, double noundef 9.610000e-03, double noundef %36, double noundef 2.500000e-01, double noundef 3.100000e-01)
  ret void
}